; Function Attrs: mustprogress uwtable
define noundef range(i32 -1, 256) i32 @_ZN13sentencepiece11PieceToByteESt17basic_string_viewIcSt11char_traitsIcEE(i64 %0, ptr %1) local_unnamed_addr #3 personality ptr @__gxx_personality_v0 {
  %3 = alloca %"struct.std::__cxx11::basic_string<char>::__sv_wrapper", align 8
  %4 = alloca %"class.std::__cxx11::basic_string", align 8
  %5 = alloca %"class.std::allocator.14", align 1
  %6 = load atomic i8, ptr @_ZGVZN13sentencepiece11PieceToByteESt17basic_string_viewIcSt11char_traitsIcEEE4kMapB5cxx11 acquire, align 8
  %7 = icmp eq i8 %6, 0
  br i1 %7, label %8, label %13, !prof !20

8:                                                ; preds = %2
  %9 = tail call i32 @__cxa_guard_acquire(ptr nonnull @_ZGVZN13sentencepiece11PieceToByteESt17basic_string_viewIcSt11char_traitsIcEEE4kMapB5cxx11) #21
  %.not = icmp eq i32 %9, 0
  br i1 %.not, label %13, label %10

10:                                               ; preds = %8
  %11 = invoke fastcc noundef ptr @"_ZZN13sentencepiece11PieceToByteESt17basic_string_viewIcSt11char_traitsIcEEENK3$_0clB5cxx11Ev"()
          to label %12 unwind label %24

12:                                               ; preds = %10
  store ptr %11, ptr @_ZZN13sentencepiece11PieceToByteESt17basic_string_viewIcSt11char_traitsIcEEE4kMapB5cxx11, align 8
  tail call void @__cxa_guard_release(ptr nonnull @_ZGVZN13sentencepiece11PieceToByteESt17basic_string_viewIcSt11char_traitsIcEEE4kMapB5cxx11) #21
  br label %13

13:                                               ; preds = %12, %8, %2
  %14 = load ptr, ptr @_ZZN13sentencepiece11PieceToByteESt17basic_string_viewIcSt11char_traitsIcEEE4kMapB5cxx11, align 8
  call void @_ZNSaIcEC1Ev(ptr noundef nonnull align 1 dereferenceable(1) %5) #21
  call void @llvm.lifetime.start.p0(i64 16, ptr nonnull %3)
  %15 = call { i64, ptr } @_ZNSt7__cxx1112basic_stringIcSt11char_traitsIcESaIcEE17_S_to_string_viewESt17basic_string_viewIcS2_E(i64 %0, ptr %1) #21
  %16 = extractvalue { i64, ptr } %15, 0
  %17 = extractvalue { i64, ptr } %15, 1
  call void @_ZNSt7__cxx1112basic_stringIcSt11char_traitsIcESaIcEE12__sv_wrapperC1ESt17basic_string_viewIcS2_E(ptr noundef nonnull align 8 dereferenceable(16) %3, i64 %16, ptr %17) #21
  %18 = load i64, ptr %3, align 8
  %19 = getelementptr inbounds i8, ptr %3, i64 8
  %20 = load ptr, ptr %19, align 8
  invoke void @_ZNSt7__cxx1112basic_stringIcSt11char_traitsIcESaIcEEC2ENS4_12__sv_wrapperERKS3_(ptr noundef nonnull align 8 dereferenceable(32) %4, i64 %18, ptr %20, ptr noundef nonnull align 1 dereferenceable(1) %5)
          to label %21 unwind label %26

21:                                               ; preds = %13
  call void @llvm.lifetime.end.p0(i64 16, ptr nonnull %3)
  %22 = invoke ptr @_ZNKSt10_HashtableINSt7__cxx1112basic_stringIcSt11char_traitsIcESaIcEEESt4pairIKS5_hESaIS8_ENSt8__detail10_Select1stESt8equal_toIS5_ESt4hashIS5_ENSA_18_Mod_range_hashingENSA_20_Default_ranged_hashENSA_20_Prime_rehash_policyENSA_17_Hashtable_traitsILb1ELb0ELb1EEEE4findERS7_(ptr noundef nonnull align 8 dereferenceable(56) %14, ptr noundef nonnull align 8 dereferenceable(32) %4)
          to label %_ZNKSt13unordered_mapINSt7__cxx1112basic_stringIcSt11char_traitsIcESaIcEEEhSt4hashIS5_ESt8equal_toIS5_ESaISt4pairIKS5_hEEE4findERSB_.exit unwind label %28

_ZNKSt13unordered_mapINSt7__cxx1112basic_stringIcSt11char_traitsIcESaIcEEEhSt4hashIS5_ESt8equal_toIS5_ESaISt4pairIKS5_hEEE4findERSB_.exit: ; preds = %21
  call void @_ZNSt7__cxx1112basic_stringIcSt11char_traitsIcESaIcEED1Ev(ptr noundef nonnull align 8 dereferenceable(32) %4) #21
  call void @_ZNSaIcED1Ev(ptr noundef nonnull align 1 dereferenceable(1) %5) #21
  %23 = icmp eq ptr %22, null
  br i1 %23, label %35, label %31

24:                                               ; preds = %10
  %25 = landingpad { ptr, i32 }
          cleanup
  tail call void @__cxa_guard_abort(ptr nonnull @_ZGVZN13sentencepiece11PieceToByteESt17basic_string_viewIcSt11char_traitsIcEEE4kMapB5cxx11) #21
  br label %36

26:                                               ; preds = %13
  %27 = landingpad { ptr, i32 }
          cleanup
  br label %30

28:                                               ; preds = %21
  %29 = landingpad { ptr, i32 }
          cleanup
  call void @_ZNSt7__cxx1112basic_stringIcSt11char_traitsIcESaIcEED1Ev(ptr noundef nonnull align 8 dereferenceable(32) %4) #21
  br label %30

30:                                               ; preds = %28, %26
  %.pn = phi { ptr, i32 } [ %29, %28 ], [ %27, %26 ]
  call void @_ZNSaIcED1Ev(ptr noundef nonnull align 1 dereferenceable(1) %5) #21
  br label %36

31:                                               ; preds = %_ZNKSt13unordered_mapINSt7__cxx1112basic_stringIcSt11char_traitsIcESaIcEEEhSt4hashIS5_ESt8equal_toIS5_ESaISt4pairIKS5_hEEE4findERSB_.exit
  %32 = getelementptr inbounds i8, ptr %22, i64 40
  %33 = load i8, ptr %32, align 8
  %34 = zext i8 %33 to i32
  br label %35

35:                                               ; preds = %_ZNKSt13unordered_mapINSt7__cxx1112basic_stringIcSt11char_traitsIcESaIcEEEhSt4hashIS5_ESt8equal_toIS5_ESaISt4pairIKS5_hEEE4findERSB_.exit, %31
  %.04 = phi i32 [ %34, %31 ], [ -1, %_ZNKSt13unordered_mapINSt7__cxx1112basic_stringIcSt11char_traitsIcESaIcEEEhSt4hashIS5_ESt8equal_toIS5_ESaISt4pairIKS5_hEEE4findERSB_.exit ]
  ret i32 %.04

36:                                               ; preds = %30, %24
  %.pn.pn = phi { ptr, i32 } [ %.pn, %30 ], [ %25, %24 ]
  resume { ptr, i32 } %.pn.pn
}